target datalayout = "e-m:e-p270:32:32-p271:32:32-p272:64:64-i64:64-i128:128-f80:128-n8:16:32:64-S128"
target triple = "x86_64-pc-linux-gnu"

%"class.cv::Subdiv2D" = type { %"class.std::vector", %"class.std::vector.0", i32, i32, i8, i32, %"class.cv::Point_", %"class.cv::Point_" }
%"class.std::vector" = type { %"struct.std::_Vector_base" }
%"struct.std::_Vector_base" = type { %"struct.std::_Vector_base<cv::Subdiv2D::Vertex, std::allocator<cv::Subdiv2D::Vertex>>::_Vector_impl" }
%"struct.std::_Vector_base<cv::Subdiv2D::Vertex, std::allocator<cv::Subdiv2D::Vertex>>::_Vector_impl" = type { %"struct.std::_Vector_base<cv::Subdiv2D::Vertex, std::allocator<cv::Subdiv2D::Vertex>>::_Vector_impl_data" }
%"struct.std::_Vector_base<cv::Subdiv2D::Vertex, std::allocator<cv::Subdiv2D::Vertex>>::_Vector_impl_data" = type { ptr, ptr, ptr }
%"class.std::vector.0" = type { %"struct.std::_Vector_base.1" }
%"struct.std::_Vector_base.1" = type { %"struct.std::_Vector_base<cv::Subdiv2D::QuadEdge, std::allocator<cv::Subdiv2D::QuadEdge>>::_Vector_impl" }
%"struct.std::_Vector_base<cv::Subdiv2D::QuadEdge, std::allocator<cv::Subdiv2D::QuadEdge>>::_Vector_impl" = type { %"struct.std::_Vector_base<cv::Subdiv2D::QuadEdge, std::allocator<cv::Subdiv2D::QuadEdge>>::_Vector_impl_data" }
%"struct.std::_Vector_base<cv::Subdiv2D::QuadEdge, std::allocator<cv::Subdiv2D::QuadEdge>>::_Vector_impl_data" = type { ptr, ptr, ptr }
%"class.cv::Point_" = type { float, float }
%"struct.cv::Subdiv2D::QuadEdge" = type { [4 x i32], [4 x i32] }
%"class.__gnu_cxx::__normal_iterator" = type { ptr }

@_ZN2cv8Subdiv2D8QuadEdgeC1Ev = unnamed_addr alias void (ptr), ptr @_ZN2cv8Subdiv2D8QuadEdgeC2Ev
@_ZN2cv8Subdiv2D8QuadEdgeC1Ei = unnamed_addr alias void (ptr, i32), ptr @_ZN2cv8Subdiv2D8QuadEdgeC2Ei

; Function Attrs: mustprogress nounwind uwtable
define linkonce_odr hidden void @_ZN9__gnu_cxx17__normal_iteratorIPN2cv8Subdiv2D8QuadEdgeESt6vectorIS3_SaIS3_EEEC2ERKS4_(ptr noundef nonnull align 8 dereferenceable(8) %0, ptr noundef nonnull align 8 dereferenceable(8) %1) unnamed_addr #0 comdat align 2 {
  %3 = alloca ptr, align 8
  %4 = alloca ptr, align 8
  store ptr %0, ptr %3, align 8, !tbaa !199
  store ptr %1, ptr %4, align 8, !tbaa !202
  %5 = load ptr, ptr %3, align 8
  %6 = getelementptr inbounds nuw %"class.__gnu_cxx::__normal_iterator", ptr %5, i32 0, i32 0
  %7 = load ptr, ptr %4, align 8, !tbaa !202
  %8 = load ptr, ptr %7, align 8, !tbaa !54
  store ptr %8, ptr %6, align 8, !tbaa !204
  ret void
}

; Function Attrs: mustprogress uwtable
define linkonce_odr hidden void @_ZNSt15__new_allocatorIN2cv8Subdiv2D8QuadEdgeEE9constructIS2_JEEEvPT_DpOT0_(ptr noundef nonnull align 1 dereferenceable(1) %0, ptr noundef %1) #4 comdat align 2 {
  %3 = alloca ptr, align 8
  %4 = alloca ptr, align 8
  store ptr %0, ptr %3, align 8, !tbaa !171
  store ptr %1, ptr %4, align 8, !tbaa !54
  %5 = load ptr, ptr %4, align 8, !tbaa !54
  call void @_ZN2cv8Subdiv2D8QuadEdgeC1Ev(ptr noundef nonnull align 4 dereferenceable(32) %5)
  ret void
}

; Function Attrs: mustprogress nounwind uwtable
define linkonce_odr hidden ptr @_ZNSt6vectorIN2cv8Subdiv2D8QuadEdgeESaIS2_EE3endEv(ptr noundef nonnull align 8 dereferenceable(24) %0) #0 comdat align 2 {
  %2 = alloca %"class.__gnu_cxx::__normal_iterator", align 8
  %3 = alloca ptr, align 8
  store ptr %0, ptr %3, align 8, !tbaa !10
  %4 = load ptr, ptr %3, align 8
  %5 = getelementptr inbounds nuw %"struct.std::_Vector_base.1", ptr %4, i32 0, i32 0
  %6 = getelementptr inbounds nuw %"struct.std::_Vector_base<cv::Subdiv2D::QuadEdge, std::allocator<cv::Subdiv2D::QuadEdge>>::_Vector_impl_data", ptr %5, i32 0, i32 1
  call void @_ZN9__gnu_cxx17__normal_iteratorIPN2cv8Subdiv2D8QuadEdgeESt6vectorIS3_SaIS3_EEEC2ERKS4_(ptr noundef nonnull align 8 dereferenceable(8) %2, ptr noundef nonnull align 8 dereferenceable(8) %6) #20
  %7 = getelementptr inbounds nuw %"class.__gnu_cxx::__normal_iterator", ptr %2, i32 0, i32 0
  %8 = load ptr, ptr %7, align 8
  ret ptr %8
}

; Function Attrs: mustprogress uwtable
define linkonce_odr hidden void @_ZNSt16allocator_traitsISaIN2cv8Subdiv2D8QuadEdgeEEE9constructIS2_JEEEvRS3_PT_DpOT0_(ptr noundef nonnull align 1 dereferenceable(1) %0, ptr noundef %1) #4 comdat align 2 {
  %3 = alloca ptr, align 8
  %4 = alloca ptr, align 8
  store ptr %0, ptr %3, align 8, !tbaa !167
  store ptr %1, ptr %4, align 8, !tbaa !54
  %5 = load ptr, ptr %3, align 8, !tbaa !167
  %6 = load ptr, ptr %4, align 8, !tbaa !54
  call void @_ZNSt15__new_allocatorIN2cv8Subdiv2D8QuadEdgeEE9constructIS2_JEEEvPT_DpOT0_(ptr noundef nonnull align 1 dereferenceable(1) %5, ptr noundef %6)
  ret void
}

; Function Attrs: mustprogress nounwind uwtable
define linkonce_odr hidden noundef nonnull align 4 dereferenceable(32) ptr @_ZNSt6vectorIN2cv8Subdiv2D8QuadEdgeESaIS2_EEixEm(ptr noundef nonnull align 8 dereferenceable(24) %0, i64 noundef %1) #0 comdat align 2 {
  %3 = alloca ptr, align 8
  %4 = alloca i64, align 8
  store ptr %0, ptr %3, align 8, !tbaa !10
  store i64 %1, ptr %4, align 8, !tbaa !12
  %5 = load ptr, ptr %3, align 8
  %6 = getelementptr inbounds nuw %"struct.std::_Vector_base.1", ptr %5, i32 0, i32 0
  %7 = getelementptr inbounds nuw %"struct.std::_Vector_base<cv::Subdiv2D::QuadEdge, std::allocator<cv::Subdiv2D::QuadEdge>>::_Vector_impl_data", ptr %6, i32 0, i32 0
  %8 = load ptr, ptr %7, align 8, !tbaa !14
  %9 = load i64, ptr %4, align 8, !tbaa !12
  %10 = getelementptr inbounds nuw %"struct.cv::Subdiv2D::QuadEdge", ptr %8, i64 %9
  ret ptr %10
}

; Function Attrs: mustprogress nounwind uwtable
define linkonce_odr hidden noundef i64 @_ZNKSt6vectorIN2cv8Subdiv2D8QuadEdgeESaIS2_EE4sizeEv(ptr noundef nonnull align 8 dereferenceable(24) %0) #0 comdat align 2 {
  %2 = alloca ptr, align 8
  store ptr %0, ptr %2, align 8, !tbaa !10
  %3 = load ptr, ptr %2, align 8
  %4 = getelementptr inbounds nuw %"struct.std::_Vector_base.1", ptr %3, i32 0, i32 0
  %5 = getelementptr inbounds nuw %"struct.std::_Vector_base<cv::Subdiv2D::QuadEdge, std::allocator<cv::Subdiv2D::QuadEdge>>::_Vector_impl_data", ptr %4, i32 0, i32 1
  %6 = load ptr, ptr %5, align 8, !tbaa !46
  %7 = getelementptr inbounds nuw %"struct.std::_Vector_base.1", ptr %3, i32 0, i32 0
  %8 = getelementptr inbounds nuw %"struct.std::_Vector_base<cv::Subdiv2D::QuadEdge, std::allocator<cv::Subdiv2D::QuadEdge>>::_Vector_impl_data", ptr %7, i32 0, i32 0
  %9 = load ptr, ptr %8, align 8, !tbaa !14
  %10 = ptrtoint ptr %6 to i64
  %11 = ptrtoint ptr %9 to i64
  %12 = sub i64 %10, %11
  %13 = sdiv exact i64 %12, 32
  ret i64 %13
}

; Function Attrs: mustprogress uwtable
define linkonce_odr void @_ZNSt6vectorIN2cv8Subdiv2D8QuadEdgeESaIS2_EE12emplace_backIJEEEvDpOT_(ptr noundef nonnull align 8 dereferenceable(24) %0) #4 comdat align 2 {
  %2 = alloca ptr, align 8
  %3 = alloca %"class.__gnu_cxx::__normal_iterator", align 8
  store ptr %0, ptr %2, align 8, !tbaa !10
  %4 = load ptr, ptr %2, align 8
  %5 = getelementptr inbounds nuw %"struct.std::_Vector_base.1", ptr %4, i32 0, i32 0
  %6 = getelementptr inbounds nuw %"struct.std::_Vector_base<cv::Subdiv2D::QuadEdge, std::allocator<cv::Subdiv2D::QuadEdge>>::_Vector_impl_data", ptr %5, i32 0, i32 1
  %7 = load ptr, ptr %6, align 8, !tbaa !46
  %8 = getelementptr inbounds nuw %"struct.std::_Vector_base.1", ptr %4, i32 0, i32 0
  %9 = getelementptr inbounds nuw %"struct.std::_Vector_base<cv::Subdiv2D::QuadEdge, std::allocator<cv::Subdiv2D::QuadEdge>>::_Vector_impl_data", ptr %8, i32 0, i32 2
  %10 = load ptr, ptr %9, align 8, !tbaa !64
  %11 = icmp ne ptr %7, %10
  br i1 %11, label %12, label %21

12:                                               ; preds = %1
  %13 = getelementptr inbounds nuw %"struct.std::_Vector_base.1", ptr %4, i32 0, i32 0
  %14 = getelementptr inbounds nuw %"struct.std::_Vector_base.1", ptr %4, i32 0, i32 0
  %15 = getelementptr inbounds nuw %"struct.std::_Vector_base<cv::Subdiv2D::QuadEdge, std::allocator<cv::Subdiv2D::QuadEdge>>::_Vector_impl_data", ptr %14, i32 0, i32 1
  %16 = load ptr, ptr %15, align 8, !tbaa !46
  call void @_ZNSt16allocator_traitsISaIN2cv8Subdiv2D8QuadEdgeEEE9constructIS2_JEEEvRS3_PT_DpOT0_(ptr noundef nonnull align 1 dereferenceable(1) %13, ptr noundef %16)
  %17 = getelementptr inbounds nuw %"struct.std::_Vector_base.1", ptr %4, i32 0, i32 0
  %18 = getelementptr inbounds nuw %"struct.std::_Vector_base<cv::Subdiv2D::QuadEdge, std::allocator<cv::Subdiv2D::QuadEdge>>::_Vector_impl_data", ptr %17, i32 0, i32 1
  %19 = load ptr, ptr %18, align 8, !tbaa !46
  %20 = getelementptr inbounds nuw %"struct.cv::Subdiv2D::QuadEdge", ptr %19, i32 1
  store ptr %20, ptr %18, align 8, !tbaa !46
  br label %26

21:                                               ; preds = %1
  %22 = call ptr @_ZNSt6vectorIN2cv8Subdiv2D8QuadEdgeESaIS2_EE3endEv(ptr noundef nonnull align 8 dereferenceable(24) %4) #20
  %23 = getelementptr inbounds nuw %"class.__gnu_cxx::__normal_iterator", ptr %3, i32 0, i32 0
  store ptr %22, ptr %23, align 8
  %24 = getelementptr inbounds nuw %"class.__gnu_cxx::__normal_iterator", ptr %3, i32 0, i32 0
  %25 = load ptr, ptr %24, align 8
  call void @_ZNSt6vectorIN2cv8Subdiv2D8QuadEdgeESaIS2_EE17_M_realloc_insertIJEEEvN9__gnu_cxx17__normal_iteratorIPS2_S4_EEDpOT_(ptr noundef nonnull align 8 dereferenceable(24) %4, ptr %25)
  br label %26

26:                                               ; preds = %21, %12
  ret void
}

; Function Attrs: mustprogress uwtable
define noundef i32 @_ZN2cv8Subdiv2D7newEdgeEv(ptr noundef nonnull align 8 dereferenceable(80) %0) #4 align 2 {
  %2 = alloca ptr, align 8
  %3 = alloca i32, align 4
  %4 = alloca %"struct.cv::Subdiv2D::QuadEdge", align 4
  store ptr %0, ptr %2, align 8, !tbaa !3
  %5 = load ptr, ptr %2, align 8
  %6 = getelementptr inbounds nuw %"class.cv::Subdiv2D", ptr %5, i32 0, i32 2
  %7 = load i32, ptr %6, align 8, !tbaa !41
  %8 = icmp sle i32 %7, 0
  br i1 %8, label %9, label %16

9:                                                ; preds = %1
  %10 = getelementptr inbounds nuw %"class.cv::Subdiv2D", ptr %5, i32 0, i32 1
  call void @_ZNSt6vectorIN2cv8Subdiv2D8QuadEdgeESaIS2_EE12emplace_backIJEEEvDpOT_(ptr noundef nonnull align 8 dereferenceable(24) %10)
  %11 = getelementptr inbounds nuw %"class.cv::Subdiv2D", ptr %5, i32 0, i32 1
  %12 = call noundef i64 @_ZNKSt6vectorIN2cv8Subdiv2D8QuadEdgeESaIS2_EE4sizeEv(ptr noundef nonnull align 8 dereferenceable(24) %11) #20
  %13 = sub i64 %12, 1
  %14 = trunc i64 %13 to i32
  %15 = getelementptr inbounds nuw %"class.cv::Subdiv2D", ptr %5, i32 0, i32 2
  store i32 %14, ptr %15, align 8, !tbaa !41
  br label %16

16:                                               ; preds = %9, %1
  call void @llvm.lifetime.start.p0(i64 4, ptr %3) #20
  %17 = getelementptr inbounds nuw %"class.cv::Subdiv2D", ptr %5, i32 0, i32 2
  %18 = load i32, ptr %17, align 8, !tbaa !41
  %19 = mul nsw i32 %18, 4
  store i32 %19, ptr %3, align 4, !tbaa !8
  %20 = getelementptr inbounds nuw %"class.cv::Subdiv2D", ptr %5, i32 0, i32 1
  %21 = load i32, ptr %3, align 4, !tbaa !8
  %22 = ashr i32 %21, 2
  %23 = sext i32 %22 to i64
  %24 = call noundef nonnull align 4 dereferenceable(32) ptr @_ZNSt6vectorIN2cv8Subdiv2D8QuadEdgeESaIS2_EEixEm(ptr noundef nonnull align 8 dereferenceable(24) %20, i64 noundef %23) #20
  %25 = getelementptr inbounds nuw %"struct.cv::Subdiv2D::QuadEdge", ptr %24, i32 0, i32 0
  %26 = getelementptr inbounds [4 x i32], ptr %25, i64 0, i64 1
  %27 = load i32, ptr %26, align 4, !tbaa !8
  %28 = getelementptr inbounds nuw %"class.cv::Subdiv2D", ptr %5, i32 0, i32 2
  store i32 %27, ptr %28, align 8, !tbaa !41
  call void @llvm.lifetime.start.p0(i64 32, ptr %4) #20
  %29 = load i32, ptr %3, align 4, !tbaa !8
  call void @_ZN2cv8Subdiv2D8QuadEdgeC1Ei(ptr noundef nonnull align 4 dereferenceable(32) %4, i32 noundef %29)
  %30 = getelementptr inbounds nuw %"class.cv::Subdiv2D", ptr %5, i32 0, i32 1
  %31 = load i32, ptr %3, align 4, !tbaa !8
  %32 = ashr i32 %31, 2
  %33 = sext i32 %32 to i64
  %34 = call noundef nonnull align 4 dereferenceable(32) ptr @_ZNSt6vectorIN2cv8Subdiv2D8QuadEdgeESaIS2_EEixEm(ptr noundef nonnull align 8 dereferenceable(24) %30, i64 noundef %33) #20
  call void @llvm.memcpy.p0.p0.i64(ptr align 4 %34, ptr align 4 %4, i64 32, i1 false), !tbaa.struct !60
  call void @llvm.lifetime.end.p0(i64 32, ptr %4) #20
  %35 = load i32, ptr %3, align 4, !tbaa !8
  call void @llvm.lifetime.end.p0(i64 4, ptr %3) #20
  ret i32 %35
}