; Function Attrs: mustprogress uwtable
define noundef range(i32 -2147483648, 2147483645) i32 @_ZN2cv8Subdiv2D7newEdgeEv(ptr noundef nonnull align 8 dereferenceable(80) %0) local_unnamed_addr #7 align 2 {
  %2 = alloca %"struct.cv::Subdiv2D::QuadEdge", align 4
  %3 = getelementptr inbounds nuw i8, ptr %0, i64 48
  %4 = load i32, ptr %3, align 8, !tbaa !47
  %5 = icmp slt i32 %4, 1
  %6 = getelementptr inbounds nuw i8, ptr %0, i64 24
  br i1 %5, label %7, label %._crit_edge

._crit_edge:                                      ; preds = %1
  %.pre4 = load ptr, ptr %6, align 8, !tbaa !3
  br label %24

7:                                                ; preds = %1
  %8 = getelementptr inbounds nuw i8, ptr %0, i64 32
  %9 = load ptr, ptr %8, align 8, !tbaa !19
  %10 = getelementptr inbounds nuw i8, ptr %0, i64 40
  %11 = load ptr, ptr %10, align 8, !tbaa !39
  %.not.i = icmp eq ptr %9, %11
  br i1 %.not.i, label %15, label %12

12:                                               ; preds = %7
  tail call void @_ZN2cv8Subdiv2D8QuadEdgeC1Ev(ptr noundef nonnull align 4 dereferenceable(32) %9)
  %13 = load ptr, ptr %8, align 8, !tbaa !19
  %14 = getelementptr inbounds nuw i8, ptr %13, i64 32
  store ptr %14, ptr %8, align 8, !tbaa !19
  br label %_ZNSt6vectorIN2cv8Subdiv2D8QuadEdgeESaIS2_EE12emplace_backIJEEEvDpOT_.exit

15:                                               ; preds = %7
  tail call void @_ZNSt6vectorIN2cv8Subdiv2D8QuadEdgeESaIS2_EE17_M_realloc_insertIJEEEvN9__gnu_cxx17__normal_iteratorIPS2_S4_EEDpOT_(ptr noundef nonnull align 8 dereferenceable(24) %6, ptr %9)
  %.pre = load ptr, ptr %8, align 8, !tbaa !19
  br label %_ZNSt6vectorIN2cv8Subdiv2D8QuadEdgeESaIS2_EE12emplace_backIJEEEvDpOT_.exit

_ZNSt6vectorIN2cv8Subdiv2D8QuadEdgeESaIS2_EE12emplace_backIJEEEvDpOT_.exit: ; preds = %12, %15
  %16 = phi ptr [ %14, %12 ], [ %.pre, %15 ]
  %17 = load ptr, ptr %6, align 8, !tbaa !3
  %18 = ptrtoint ptr %16 to i64
  %19 = ptrtoint ptr %17 to i64
  %20 = sub i64 %18, %19
  %21 = lshr exact i64 %20, 5
  %22 = trunc i64 %21 to i32
  %23 = add i32 %22, -1
  store i32 %23, ptr %3, align 8, !tbaa !47
  br label %24

24:                                               ; preds = %._crit_edge, %_ZNSt6vectorIN2cv8Subdiv2D8QuadEdgeESaIS2_EE12emplace_backIJEEEvDpOT_.exit
  %25 = phi ptr [ %17, %_ZNSt6vectorIN2cv8Subdiv2D8QuadEdgeESaIS2_EE12emplace_backIJEEEvDpOT_.exit ], [ %.pre4, %._crit_edge ]
  %26 = phi i32 [ %23, %_ZNSt6vectorIN2cv8Subdiv2D8QuadEdgeESaIS2_EE12emplace_backIJEEEvDpOT_.exit ], [ %4, %._crit_edge ]
  %27 = shl nsw i32 %26, 2
  %28 = getelementptr inbounds nuw i8, ptr %0, i64 24
  %29 = sext i32 %26 to i64
  %30 = getelementptr inbounds nuw %"struct.cv::Subdiv2D::QuadEdge", ptr %25, i64 %29, i32 0, i64 1
  %31 = load i32, ptr %30, align 4, !tbaa !9
  store i32 %31, ptr %3, align 8, !tbaa !47
  call void @llvm.lifetime.start.p0(i64 32, ptr nonnull %2) #28
  call void @_ZN2cv8Subdiv2D8QuadEdgeC1Ei(ptr noundef nonnull align 4 dereferenceable(32) %2, i32 noundef %27)
  %32 = load ptr, ptr %28, align 8, !tbaa !3
  %33 = getelementptr inbounds nuw %"struct.cv::Subdiv2D::QuadEdge", ptr %32, i64 %29
  call void @llvm.memcpy.p0.p0.i64(ptr noundef nonnull align 4 dereferenceable(32) %33, ptr noundef nonnull align 4 dereferenceable(32) %2, i64 32, i1 false), !tbaa.struct !40
  call void @llvm.lifetime.end.p0(i64 32, ptr nonnull %2) #28
  ret i32 %27
}